; Function Attrs: nounwind uwtable
define range(i32 -1, 1) i32 @H5Pget_nlinks(i64 noundef %0, ptr noundef %1) local_unnamed_addr #0 {
  %3 = load i8, ptr @H5_libinit_g, align 1
  %4 = trunc i8 %3 to i1
  %5 = load i8, ptr @H5_libterm_g, align 1
  %6 = trunc i8 %5 to i1
  %7 = select i1 %4, i1 true, i1 %6
  br i1 %7, label %15, label %8

8:                                                ; preds = %2
  %9 = tail call i32 @H5_init_library() #8
  %10 = icmp slt i32 %9, 0
  br i1 %10, label %11, label %15

11:                                               ; preds = %8
  %12 = load i64, ptr @H5E_FUNC_g, align 8
  %13 = load i64, ptr @H5E_CANTINIT_g, align 8
  %14 = tail call i32 (ptr, ptr, i32, i64, i64, ptr, ...) @H5E_printf_stack(ptr noundef nonnull @.str.1, ptr noundef nonnull @__func__.H5Pget_nlinks, i32 noundef 894, i64 noundef %12, i64 noundef %13, ptr noundef nonnull @.str.2) #8
  br label %.thread23

15:                                               ; preds = %8, %2
  %16 = tail call i32 @H5CX_push() #8
  %17 = icmp slt i32 %16, 0
  br i1 %17, label %18, label %22

18:                                               ; preds = %15
  %19 = load i64, ptr @H5E_FUNC_g, align 8
  %20 = load i64, ptr @H5E_CANTSET_g, align 8
  %21 = tail call i32 (ptr, ptr, i32, i64, i64, ptr, ...) @H5E_printf_stack(ptr noundef nonnull @.str.1, ptr noundef nonnull @__func__.H5Pget_nlinks, i32 noundef 894, i64 noundef %19, i64 noundef %20, ptr noundef nonnull @.str.3) #8
  br label %.thread23

22:                                               ; preds = %15
  %23 = tail call i32 @H5E_clear_stack() #8
  %.not = icmp eq ptr %1, null
  br i1 %.not, label %24, label %28

24:                                               ; preds = %22
  %25 = load i64, ptr @H5E_ARGS_g, align 8
  %26 = load i64, ptr @H5E_BADVALUE_g, align 8
  %27 = tail call i32 (ptr, ptr, i32, i64, i64, ptr, ...) @H5E_printf_stack(ptr noundef nonnull @.str.1, ptr noundef nonnull @__func__.H5Pget_nlinks, i32 noundef 897, i64 noundef %25, i64 noundef %26, ptr noundef nonnull @.str.8) #8
  br label %.thread29

28:                                               ; preds = %22
  %29 = load i64, ptr @H5P_CLS_LINK_ACCESS_ID_g, align 8
  %30 = tail call ptr @H5P_object_verify(i64 noundef %0, i64 noundef %29) #8
  %31 = icmp eq ptr %30, null
  br i1 %31, label %32, label %36

32:                                               ; preds = %28
  %33 = load i64, ptr @H5E_ID_g, align 8
  %34 = load i64, ptr @H5E_BADID_g, align 8
  %35 = tail call i32 (ptr, ptr, i32, i64, i64, ptr, ...) @H5E_printf_stack(ptr noundef nonnull @.str.1, ptr noundef nonnull @__func__.H5Pget_nlinks, i32 noundef 901, i64 noundef %33, i64 noundef %34, ptr noundef nonnull @.str.5) #8
  br label %.thread29

36:                                               ; preds = %28
  %37 = tail call i32 @H5P_get(ptr noundef nonnull %30, ptr noundef nonnull @.str.6, ptr noundef nonnull %1) #8
  %38 = icmp slt i32 %37, 0
  br i1 %38, label %39, label %44

39:                                               ; preds = %36
  %40 = load i64, ptr @H5E_PLIST_g, align 8
  %41 = load i64, ptr @H5E_CANTGET_g, align 8
  %42 = tail call i32 (ptr, ptr, i32, i64, i64, ptr, ...) @H5E_printf_stack(ptr noundef nonnull @.str.1, ptr noundef nonnull @__func__.H5Pget_nlinks, i32 noundef 905, i64 noundef %40, i64 noundef %41, ptr noundef nonnull @.str.9) #8
  br label %.thread29

.thread29:                                        ; preds = %24, %39, %32
  %43 = tail call i32 @H5CX_pop(i1 noundef zeroext true) #8
  br label %.thread23

44:                                               ; preds = %36
  %45 = tail call i32 @H5CX_pop(i1 noundef zeroext true) #8
  br label %47

.thread23:                                        ; preds = %18, %11, %.thread29
  %46 = tail call i32 @H5E_dump_api_stack() #8
  br label %47

47:                                               ; preds = %44, %.thread23
  %.0121826 = phi i32 [ -1, %.thread23 ], [ 0, %44 ]
  ret i32 %.0121826
}